; Function Attrs: mustprogress nofree norecurse nosync nounwind willreturn memory(argmem: read) uwtable
define dso_local { i64, i8 } @_ZNK4llvm14DWARFFormValue18getAsCStringOffsetEv(ptr nocapture noundef nonnull readonly align 8 dereferenceable(48) %0) local_unnamed_addr #7 align 2 {
  %2 = load i16, ptr %0, align 8
  %3 = icmp ult i16 %2, 46
  br i1 %3, label %4, label %_ZNK4llvm14DWARFFormValue11isFormClassENS0_9FormClassE.exit.thread

4:                                                ; preds = %1
  %5 = zext nneg i16 %2 to i64
  %6 = shl nuw nsw i64 1, %5
  %7 = and i64 %6, 2064335782144
  %.not = icmp eq i64 %7, 0
  %cond = icmp eq i16 %2, 8
  %or.cond = and i1 %cond, %.not
  br i1 %or.cond, label %10, label %_ZNK4llvm14DWARFFormValue11isFormClassENS0_9FormClassE.exit.thread

_ZNK4llvm14DWARFFormValue11isFormClassENS0_9FormClassE.exit.thread: ; preds = %1, %4
  %8 = getelementptr inbounds nuw i8, ptr %0, i64 8
  %9 = load i64, ptr %8, align 8
  br label %10

10:                                               ; preds = %4, %_ZNK4llvm14DWARFFormValue11isFormClassENS0_9FormClassE.exit.thread
  %.sroa.2.0 = phi i8 [ 1, %_ZNK4llvm14DWARFFormValue11isFormClassENS0_9FormClassE.exit.thread ], [ 0, %4 ]
  %.sroa.0.0 = phi i64 [ %9, %_ZNK4llvm14DWARFFormValue11isFormClassENS0_9FormClassE.exit.thread ], [ undef, %4 ]
  %.fca.0.insert = insertvalue { i64, i8 } poison, i64 %.sroa.0.0, 0
  %.fca.1.insert = insertvalue { i64, i8 } %.fca.0.insert, i8 %.sroa.2.0, 1
  ret { i64, i8 } %.fca.1.insert
}